; Function Attrs: mustprogress uwtable
define hidden void @_ZN7datalog10lazy_table12remove_factsEjPKm(ptr noundef nonnull readonly align 8 captures(none) dereferenceable(48) %0, i32 noundef %1, ptr noundef %2) unnamed_addr #3 align 2 {
  %4 = getelementptr inbounds nuw i8, ptr %0, i64 40
  %5 = load ptr, ptr %4, align 8, !tbaa !56
  %6 = getelementptr inbounds nuw i8, ptr %5, i64 40
  %7 = load ptr, ptr %6, align 8, !tbaa !51
  %.not.i = icmp eq ptr %7, null
  br i1 %.not.i, label %8, label %_ZN7datalog14lazy_table_ref4evalEv.exit

8:                                                ; preds = %3
  %9 = load ptr, ptr %5, align 8, !tbaa !27
  %10 = load ptr, ptr %9, align 8
  %11 = tail call noundef ptr %10(ptr noundef nonnull align 8 dereferenceable(48) %5)
  %12 = load ptr, ptr %6, align 8, !tbaa !51
  %.not.i.i = icmp eq ptr %12, null
  %.not3.i.i = icmp eq ptr %11, %12
  %or.cond.i.i = or i1 %.not.i.i, %.not3.i.i
  br i1 %or.cond.i.i, label %_ZN7datalog10scoped_relINS_10table_baseEEaSEPS1_.exit.i, label %13

13:                                               ; preds = %8
  tail call void @_ZN7datalog16universal_deleteEPNS_10table_baseE(ptr noundef nonnull %12)
  br label %_ZN7datalog10scoped_relINS_10table_baseEEaSEPS1_.exit.i

_ZN7datalog10scoped_relINS_10table_baseEEaSEPS1_.exit.i: ; preds = %13, %8
  store ptr %11, ptr %6, align 8, !tbaa !51
  br label %_ZN7datalog14lazy_table_ref4evalEv.exit

_ZN7datalog14lazy_table_ref4evalEv.exit:          ; preds = %3, %_ZN7datalog10scoped_relINS_10table_baseEEaSEPS1_.exit.i
  %14 = phi ptr [ %11, %_ZN7datalog10scoped_relINS_10table_baseEEaSEPS1_.exit.i ], [ %7, %3 ]
  %15 = load ptr, ptr %14, align 8, !tbaa !27
  %16 = getelementptr inbounds nuw i8, ptr %15, i64 184
  %17 = load ptr, ptr %16, align 8
  tail call void %17(ptr noundef nonnull align 8 dereferenceable(36) %14, i32 noundef %1, ptr noundef %2)
  ret void
}